#include <math.h>
#include <stdio.h>
#include <stdlib.h>
#include <string.h>

int main()
{
	int year,month,day;
	int result;
	scanf("%d %d %d",&year,&month,&day);
	result=(month-1)*30+day;
	if(month==1)
	{printf("%d",result);}
	else
	{
		if(month==2||month==4||month==5)
		{result=result+1;}
	    if(month==6||month==7)
		{result=result+2;}
	    if(month==8)
		{result=result+3;}
    	if(month==9||month==10)
		{result=result+4;}
	    if(month==11||month==12)
		{result=result+5;}
    	if((year%4==0&&year%100!=0)||(year%400==0))
		{	printf("%d",result);}
    	else
		{printf("%d",result-1);}
	}
	return 0;
}