; ModuleID = 'source-C-CXX/10/918.c'
source_filename = "source-C-CXX/10/918.c"
target datalayout = "e-m:e-p270:32:32-p271:32:32-p272:64:64-i64:64-f80:128-n8:16:32:64-S128"
target triple = "x86_64-pc-linux-gnu"

@.str = private unnamed_addr constant [9 x i8] c"%d %d %d\00", align 1
@.str.1 = private unnamed_addr constant [3 x i8] c"%d\00", align 1

; Function Attrs: nofree nounwind sspstrong uwtable
define dso_local i32 @main() local_unnamed_addr #0 {
  %1 = alloca i32, align 4
  %2 = alloca i32, align 4
  %3 = alloca i32, align 4
  %4 = bitcast i32* %1 to i8*
  call void @llvm.lifetime.start.p0i8(i64 4, i8* nonnull %4) #3
  %5 = bitcast i32* %2 to i8*
  call void @llvm.lifetime.start.p0i8(i64 4, i8* nonnull %5) #3
  %6 = bitcast i32* %3 to i8*
  call void @llvm.lifetime.start.p0i8(i64 4, i8* nonnull %6) #3
  %7 = call i32 (i8*, ...) @__isoc99_scanf(i8* getelementptr inbounds ([9 x i8], [9 x i8]* @.str, i64 0, i64 0), i32* nonnull %1, i32* nonnull %2, i32* nonnull %3)
  %8 = load i32, i32* %2, align 4, !tbaa !5
  %9 = mul i32 %8, 30
  %10 = add i32 %9, -30
  %11 = load i32, i32* %3, align 4, !tbaa !5
  %12 = add nsw i32 %10, %11
  switch i32 %8, label %15 [
    i32 1, label %43
    i32 5, label %13
    i32 4, label %13
    i32 2, label %13
  ]

13:                                               ; preds = %0, %0, %0
  %14 = add nsw i32 %12, 1
  br label %15

15:                                               ; preds = %0, %13
  %16 = phi i32 [ %14, %13 ], [ %12, %0 ]
  %17 = and i32 %8, -2
  %18 = icmp eq i32 %17, 6
  %19 = add nsw i32 %16, 2
  %20 = select i1 %18, i32 %19, i32 %16
  %21 = icmp eq i32 %8, 8
  %22 = add nsw i32 %20, 3
  %23 = select i1 %21, i32 %22, i32 %20
  %24 = add i32 %8, -9
  %25 = icmp ult i32 %24, 2
  %26 = add nsw i32 %23, 4
  %27 = select i1 %25, i32 %26, i32 %23
  %28 = add i32 %8, -11
  %29 = icmp ult i32 %28, 2
  %30 = add nsw i32 %27, 5
  %31 = select i1 %29, i32 %30, i32 %27
  %32 = load i32, i32* %1, align 4, !tbaa !5
  %33 = and i32 %32, 3
  %34 = icmp ne i32 %33, 0
  %35 = srem i32 %32, 100
  %36 = icmp eq i32 %35, 0
  %37 = srem i32 %32, 400
  %38 = icmp ne i32 %37, 0
  %39 = or i1 %34, %36
  %40 = select i1 %39, i1 %38, i1 false
  %41 = sext i1 %40 to i32
  %42 = add nsw i32 %31, %41
  br label %43

43:                                               ; preds = %15, %0
  %44 = phi i32 [ %12, %0 ], [ %42, %15 ]
  %45 = call i32 (i8*, ...) @printf(i8* nonnull dereferenceable(1) getelementptr inbounds ([3 x i8], [3 x i8]* @.str.1, i64 0, i64 0), i32 %44)
  call void @llvm.lifetime.end.p0i8(i64 4, i8* nonnull %6) #3
  call void @llvm.lifetime.end.p0i8(i64 4, i8* nonnull %5) #3
  call void @llvm.lifetime.end.p0i8(i64 4, i8* nonnull %4) #3
  ret i32 0
}

; Function Attrs: argmemonly mustprogress nofree nosync nounwind willreturn
declare void @llvm.lifetime.start.p0i8(i64 immarg, i8* nocapture) #1

; Function Attrs: nofree nounwind
declare noundef i32 @__isoc99_scanf(i8* nocapture noundef readonly, ...) local_unnamed_addr #2

; Function Attrs: nofree nounwind
declare noundef i32 @printf(i8* nocapture noundef readonly, ...) local_unnamed_addr #2

; Function Attrs: argmemonly mustprogress nofree nosync nounwind willreturn
declare void @llvm.lifetime.end.p0i8(i64 immarg, i8* nocapture) #1


!llvm.module.flags = !{!0, !1, !2, !3}
!llvm.ident = !{!4}

!0 = !{i32 1, !"wchar_size", i32 4}
!1 = !{i32 7, !"PIC Level", i32 2}
!2 = !{i32 7, !"PIE Level", i32 2}
!3 = !{i32 7, !"uwtable", i32 1}
!4 = !{!"clang version 13.0.0"}
!5 = !{!6, !6, i64 0}
!6 = !{!"int", !7, i64 0}
!7 = !{!"omnipotent char", !8, i64 0}
!8 = !{!"Simple C/C++ TBAA"}
